target datalayout = "e-m:e-p270:32:32-p271:32:32-p272:64:64-i64:64-i128:128-f80:128-n8:16:32:64-S128"
target triple = "x86_64-pc-linux-gnu"

%struct.expand_data = type { %struct.object_id, i32, i64, i64, ptr, %struct.object_id, i32, i32, %struct.object_info, i8 }
%struct.object_id = type { [32 x i8], i32 }
%struct.object_info = type { ptr, ptr, ptr, ptr, ptr, ptr, i32, %union.anon }
%union.anon = type { %struct.anon }
%struct.anon = type { ptr, i64, i32 }
%struct.object_cb_data = type { ptr, ptr, ptr, ptr }

; Function Attrs: inlinehint nounwind uwtable
define internal void @oidcpy(ptr noundef %0, ptr noundef %1) #4 {
  %3 = alloca ptr, align 8
  %4 = alloca ptr, align 8
  store ptr %0, ptr %3, align 8, !tbaa !104
  store ptr %1, ptr %4, align 8, !tbaa !104
  %5 = load ptr, ptr %3, align 8, !tbaa !104
  %6 = getelementptr inbounds nuw %struct.object_id, ptr %5, i32 0, i32 0
  %7 = getelementptr inbounds [32 x i8], ptr %6, i64 0, i64 0
  %8 = load ptr, ptr %4, align 8, !tbaa !104
  %9 = getelementptr inbounds nuw %struct.object_id, ptr %8, i32 0, i32 0
  %10 = getelementptr inbounds [32 x i8], ptr %9, i64 0, i64 0
  call void @llvm.memcpy.p0.p0.i64(ptr align 4 %7, ptr align 4 %10, i64 32, i1 false)
  %11 = load ptr, ptr %4, align 8, !tbaa !104
  %12 = getelementptr inbounds nuw %struct.object_id, ptr %11, i32 0, i32 1
  %13 = load i32, ptr %12, align 4, !tbaa !100
  %14 = load ptr, ptr %3, align 8, !tbaa !104
  %15 = getelementptr inbounds nuw %struct.object_id, ptr %14, i32 0, i32 1
  store i32 %13, ptr %15, align 4, !tbaa !100
  ret void
}

; Function Attrs: nounwind uwtable
define internal i32 @batch_unordered_object(ptr noundef %0, ptr noundef %1, i64 noundef %2, ptr noundef %3) #0 {
  %5 = alloca i32, align 4
  %6 = alloca ptr, align 8
  %7 = alloca ptr, align 8
  %8 = alloca i64, align 8
  %9 = alloca ptr, align 8
  %10 = alloca ptr, align 8
  %11 = alloca i32, align 4
  store ptr %0, ptr %6, align 8, !tbaa !104
  store ptr %1, ptr %7, align 8, !tbaa !105
  store i64 %2, ptr %8, align 8, !tbaa !99
  store ptr %3, ptr %9, align 8, !tbaa !61
  call void @llvm.lifetime.start.p0(i64 8, ptr %10) #9
  %12 = load ptr, ptr %9, align 8, !tbaa !61
  store ptr %12, ptr %10, align 8, !tbaa !107
  %13 = load ptr, ptr %10, align 8, !tbaa !107
  %14 = getelementptr inbounds nuw %struct.object_cb_data, ptr %13, i32 0, i32 2
  %15 = load ptr, ptr %14, align 8, !tbaa !81
  %16 = load ptr, ptr %6, align 8, !tbaa !104
  %17 = call i32 @oidset_insert(ptr noundef %15, ptr noundef %16)
  %18 = icmp ne i32 %17, 0
  br i1 %18, label %19, label %20

19:                                               ; preds = %4
  store i32 0, ptr %5, align 4
  store i32 1, ptr %11, align 4
  br label %37

20:                                               ; preds = %4
  %21 = load ptr, ptr %10, align 8, !tbaa !107
  %22 = getelementptr inbounds nuw %struct.object_cb_data, ptr %21, i32 0, i32 1
  %23 = load ptr, ptr %22, align 8, !tbaa !78
  %24 = getelementptr inbounds nuw %struct.expand_data, ptr %23, i32 0, i32 0
  %25 = load ptr, ptr %6, align 8, !tbaa !104
  call void @oidcpy(ptr noundef %24, ptr noundef %25)
  %26 = load ptr, ptr %10, align 8, !tbaa !107
  %27 = getelementptr inbounds nuw %struct.object_cb_data, ptr %26, i32 0, i32 3
  %28 = load ptr, ptr %27, align 8, !tbaa !79
  %29 = load ptr, ptr %10, align 8, !tbaa !107
  %30 = getelementptr inbounds nuw %struct.object_cb_data, ptr %29, i32 0, i32 0
  %31 = load ptr, ptr %30, align 8, !tbaa !74
  %32 = load ptr, ptr %10, align 8, !tbaa !107
  %33 = getelementptr inbounds nuw %struct.object_cb_data, ptr %32, i32 0, i32 1
  %34 = load ptr, ptr %33, align 8, !tbaa !78
  %35 = load ptr, ptr %7, align 8, !tbaa !105
  %36 = load i64, ptr %8, align 8, !tbaa !99
  call void @batch_object_write(ptr noundef null, ptr noundef %28, ptr noundef %31, ptr noundef %34, ptr noundef %35, i64 noundef %36)
  store i32 0, ptr %5, align 4
  store i32 1, ptr %11, align 4
  br label %37

37:                                               ; preds = %20, %19
  call void @llvm.lifetime.end.p0(i64 8, ptr %10) #9
  %38 = load i32, ptr %5, align 4
  ret i32 %38
}

; Function Attrs: nounwind uwtable
define internal i32 @batch_unordered_loose(ptr noundef %0, ptr noundef %1, ptr noundef %2) #0 {
  %4 = alloca ptr, align 8
  %5 = alloca ptr, align 8
  %6 = alloca ptr, align 8
  store ptr %0, ptr %4, align 8, !tbaa !104
  store ptr %1, ptr %5, align 8, !tbaa !11
  store ptr %2, ptr %6, align 8, !tbaa !61
  %7 = load ptr, ptr %4, align 8, !tbaa !104
  %8 = load ptr, ptr %6, align 8, !tbaa !61
  %9 = call i32 @batch_unordered_object(ptr noundef %7, ptr noundef null, i64 noundef 0, ptr noundef %8)
  ret i32 %9
}