; Function Attrs: nounwind uwtable
define internal noundef i32 @batch_unordered_loose(ptr noundef %0, ptr readnone captures(none) %1, ptr noundef readonly captures(none) %2) #0 {
  %4 = getelementptr inbounds nuw i8, ptr %2, i64 16
  %5 = load ptr, ptr %4, align 8, !tbaa !69
  %6 = tail call i32 @oidset_insert(ptr noundef %5, ptr noundef %0) #14
  %.not.i = icmp eq i32 %6, 0
  br i1 %.not.i, label %7, label %batch_unordered_object.exit

7:                                                ; preds = %3
  %8 = getelementptr inbounds nuw i8, ptr %2, i64 8
  %9 = load ptr, ptr %8, align 8, !tbaa !66
  tail call void @llvm.memcpy.p0.p0.i64(ptr noundef nonnull align 4 dereferenceable(32) %9, ptr noundef nonnull readonly align 4 dereferenceable(32) %0, i64 32, i1 false)
  %10 = getelementptr inbounds nuw i8, ptr %0, i64 32
  %11 = load i32, ptr %10, align 4, !tbaa !101
  %12 = getelementptr inbounds nuw i8, ptr %9, i64 32
  store i32 %11, ptr %12, align 4, !tbaa !101
  %13 = getelementptr inbounds nuw i8, ptr %2, i64 24
  %14 = load ptr, ptr %13, align 8, !tbaa !67
  %15 = load ptr, ptr %2, align 8, !tbaa !61
  %16 = load ptr, ptr %8, align 8, !tbaa !66
  tail call fastcc void @batch_object_write(ptr noundef null, ptr noundef %14, ptr noundef %15, ptr noundef %16, ptr noundef null, i64 noundef 0)
  br label %batch_unordered_object.exit

batch_unordered_object.exit:                      ; preds = %3, %7
  ret i32 0
}